; Function Attrs: mustprogress nofree norecurse nosync nounwind willreturn memory(read, inaccessiblemem: none) uwtable
define range(i32 0, 4) i32 @lv_obj_get_scroll_snap_x(ptr nocapture noundef readonly %0) local_unnamed_addr #2 {
  %2 = getelementptr inbounds nuw i8, ptr %0, i64 16
  %3 = load ptr, ptr %2, align 8, !tbaa !3
  %.not = icmp eq ptr %3, null
  br i1 %.not, label %10, label %4

4:                                                ; preds = %1
  %5 = getelementptr inbounds nuw i8, ptr %3, i64 66
  %6 = load i16, ptr %5, align 2
  %7 = lshr i16 %6, 2
  %8 = and i16 %7, 3
  %9 = zext nneg i16 %8 to i32
  br label %10

10:                                               ; preds = %1, %4
  %.0 = phi i32 [ %9, %4 ], [ 0, %1 ]
  ret i32 %.0
}